; Function Attrs: mustprogress nounwind uwtable
define dso_local void @_ZN4node6worker11MessagePort8EntangleEPS1_S2_(ptr nocapture noundef readonly %a, ptr nocapture noundef readonly %b) local_unnamed_addr #6 align 2 {
entry:
  %data_ = getelementptr inbounds i8, ptr %a, i64 88
  %0 = load ptr, ptr %data_, align 8
  %data_1 = getelementptr inbounds i8, ptr %b, i64 88
  %1 = load ptr, ptr %data_1, align 8
  tail call void @_ZN4node6worker15MessagePortData8EntangleEPS1_S2_(ptr noundef %0, ptr noundef %1)
  ret void
}